target datalayout = "e-m:e-p270:32:32-p271:32:32-p272:64:64-i64:64-i128:128-f80:128-n8:16:32:64-S128"
target triple = "x86_64-pc-linux-gnu"

; Function Attrs: nounwind uwtable
define internal void @tikz_textsize(ptr noundef %0, ptr noundef %1, i32 noundef %2, i32 noundef %3, ptr noundef %4) #0 {
  %6 = alloca ptr, align 8
  %7 = alloca ptr, align 8
  %8 = alloca i32, align 4
  %9 = alloca i32, align 4
  %10 = alloca ptr, align 8
  store ptr %0, ptr %6, align 8, !tbaa !4
  store ptr %1, ptr %7, align 8, !tbaa !9
  store i32 %2, ptr %8, align 4, !tbaa !24
  store i32 %3, ptr %9, align 4, !tbaa !24
  store ptr %4, ptr %10, align 8, !tbaa !49
  %11 = load i32, ptr %9, align 4, !tbaa !24
  %12 = mul i32 %11, 13
  %13 = udiv i32 %12, 9
  store i32 %13, ptr %9, align 4, !tbaa !24
  %14 = load i32, ptr %8, align 4, !tbaa !24
  %15 = load i32, ptr %9, align 4, !tbaa !24
  %16 = mul i32 %14, %15
  %17 = mul i32 %16, 10
  %18 = udiv i32 %17, 22
  %19 = load ptr, ptr %10, align 8, !tbaa !49
  store i32 %18, ptr %19, align 4, !tbaa !24
  ret void
}