; Function Attrs: mustprogress nofree norecurse nosync nounwind willreturn memory(argmem: write) uwtable
define internal void @tikz_textsize(ptr readnone captures(none) %0, ptr readnone captures(none) %1, i32 noundef %2, i32 noundef %3, ptr noundef writeonly captures(none) initializes((0, 4)) %4) #9 {
  %6 = mul i32 %3, 13
  %7 = udiv i32 %6, 9
  %8 = mul i32 %2, 10
  %9 = mul i32 %8, %7
  %10 = udiv i32 %9, 22
  store i32 %10, ptr %4, align 4, !tbaa !21
  ret void
}